target datalayout = "e-m:e-p270:32:32-p271:32:32-p272:64:64-i64:64-i128:128-f80:128-n8:16:32:64-S128"
target triple = "x86_64-pc-linux-gnu"

%union.pthread_mutex_t = type { %struct.__pthread_mutex_s }
%struct.__pthread_mutex_s = type { i32, i32, i32, i32, i32, i16, i16, %struct.__pthread_internal_list }
%struct.__pthread_internal_list = type { ptr, ptr }
%union.pthread_cond_t = type { %struct.__pthread_cond_s }
%struct.__pthread_cond_s = type { %union.__atomic_wide_counter, %union.__atomic_wide_counter, [2 x i32], [2 x i32], i32, i32, [2 x i32] }
%union.__atomic_wide_counter = type { i64 }
%struct.srun_job = type { %struct.slurm_step_id_msg, i32, i32, ptr, i32, i32, i32, i32, ptr, ptr, ptr, ptr, i32, i32, i32, i16, i16, i16, i16, i32, %union.pthread_mutex_t, %union.pthread_cond_t, i32, ptr, ptr, ptr, ptr, ptr, ptr, i32, i16, i16, i16, ptr, ptr, ptr, ptr, i32, ptr, i32, ptr }
%struct.slurm_step_id_msg = type { i64, i32, i32, i32 }

@error_exit = external global i32, align 4
@MPIR_being_debugged = external global i32, align 4
@retry_step_begin = internal global i8 0, align 1
@retry_step_cnt = internal global i32 0, align 4

; Function Attrs: nounwind uwtable
define dso_local i32 @launch_g_step_wait(ptr noundef %0, i1 noundef zeroext %1, ptr noundef %2) #0 {
  %4 = alloca ptr, align 8
  %5 = alloca i8, align 1
  %6 = alloca ptr, align 8
  %7 = alloca i32, align 4
  store ptr %0, ptr %4, align 8
  %8 = zext i1 %1 to i8
  store i8 %8, ptr %5, align 1
  store ptr %2, ptr %6, align 8
  call void @llvm.lifetime.start.p0(i64 4, ptr %7) #10
  store i32 0, ptr %7, align 4
  %9 = load ptr, ptr %4, align 8
  %10 = getelementptr inbounds nuw %struct.srun_job, ptr %9, i32 0, i32 33
  %11 = load ptr, ptr %10, align 8
  call void @slurm_step_launch_wait_finish(ptr noundef %11)
  %12 = load i32, ptr @MPIR_being_debugged, align 4
  %13 = icmp eq i32 %12, 0
  br i1 %13, label %14, label %46

14:                                               ; preds = %3
  %15 = load i8, ptr @retry_step_begin, align 1, !range !8, !noundef !9
  %16 = trunc i8 %15 to i1
  br i1 %16, label %17, label %46

17:                                               ; preds = %14
  %18 = load i32, ptr @retry_step_cnt, align 4
  %19 = icmp slt i32 %18, 4
  br i1 %19, label %20, label %46

20:                                               ; preds = %17
  %21 = load ptr, ptr %4, align 8
  %22 = getelementptr inbounds nuw %struct.srun_job, ptr %21, i32 0, i32 2
  %23 = load i32, ptr %22, align 4
  %24 = icmp eq i32 %23, -2
  br i1 %24, label %25, label %46

25:                                               ; preds = %20
  store i8 0, ptr @retry_step_begin, align 1
  %26 = load ptr, ptr %4, align 8
  %27 = getelementptr inbounds nuw %struct.srun_job, ptr %26, i32 0, i32 33
  %28 = load ptr, ptr %27, align 8
  %29 = call i32 @step_ctx_destroy(ptr noundef %28)
  %30 = load i8, ptr %5, align 1, !range !8, !noundef !9
  %31 = trunc i8 %30 to i1
  br i1 %31, label %32, label %36

32:                                               ; preds = %25
  %33 = load ptr, ptr %4, align 8
  %34 = load ptr, ptr %6, align 8
  %35 = call i32 @create_job_step(ptr noundef %33, i1 noundef zeroext true, ptr noundef %34)
  store i32 %35, ptr %7, align 4
  br label %40

36:                                               ; preds = %25
  %37 = load ptr, ptr %4, align 8
  %38 = load ptr, ptr %6, align 8
  %39 = call i32 @create_job_step(ptr noundef %37, i1 noundef zeroext false, ptr noundef %38)
  store i32 %39, ptr %7, align 4
  br label %40

40:                                               ; preds = %36, %32
  %41 = load i32, ptr %7, align 4
  %42 = icmp slt i32 %41, 0
  br i1 %42, label %43, label %45

43:                                               ; preds = %40
  %44 = load i32, ptr @error_exit, align 4
  call void @exit(i32 noundef %44) #11
  unreachable

45:                                               ; preds = %40
  store i32 -1, ptr %7, align 4
  br label %46

46:                                               ; preds = %45, %20, %17, %14, %3
  %47 = load i32, ptr %7, align 4
  call void @llvm.lifetime.end.p0(i64 4, ptr %7) #10
  ret i32 %47
}